target datalayout = "e-m:e-p270:32:32-p271:32:32-p272:64:64-i64:64-i128:128-f80:128-n8:16:32:64-S128"
target triple = "x86_64-pc-linux-gnu"

%struct._variable = type { ptr, ptr, ptr, ptr, ptr }

; Function Attrs: nounwind uwtable
define dso_local zeroext i1 @VariableHasHook(ptr noundef %0, ptr noundef %1) #0 {
  %3 = alloca i1, align 1
  %4 = alloca ptr, align 8
  %5 = alloca ptr, align 8
  %6 = alloca ptr, align 8
  %7 = alloca i32, align 4
  %8 = alloca i32, align 4
  store ptr %0, ptr %4, align 8
  store ptr %1, ptr %5, align 8
  call void @llvm.lifetime.start.p0(i64 8, ptr %6) #6
  %9 = load ptr, ptr %4, align 8
  %10 = getelementptr inbounds nuw %struct._variable, ptr %9, i32 0, i32 4
  %11 = load ptr, ptr %10, align 8
  store ptr %11, ptr %6, align 8
  br label %12

12:                                               ; preds = %43, %2
  %13 = load ptr, ptr %6, align 8
  %14 = icmp ne ptr %13, null
  br i1 %14, label %15, label %47

15:                                               ; preds = %12
  call void @llvm.lifetime.start.p0(i64 4, ptr %7) #6
  %16 = load ptr, ptr %6, align 8
  %17 = getelementptr inbounds nuw %struct._variable, ptr %16, i32 0, i32 0
  %18 = load ptr, ptr %17, align 8
  %19 = load ptr, ptr %5, align 8
  %20 = call i32 @strcmp(ptr noundef %18, ptr noundef %19) #7
  store i32 %20, ptr %7, align 4
  %21 = load i32, ptr %7, align 4
  %22 = icmp eq i32 %21, 0
  br i1 %22, label %23, label %35

23:                                               ; preds = %15
  %24 = load ptr, ptr %6, align 8
  %25 = getelementptr inbounds nuw %struct._variable, ptr %24, i32 0, i32 2
  %26 = load ptr, ptr %25, align 8
  %27 = icmp ne ptr %26, null
  br i1 %27, label %33, label %28

28:                                               ; preds = %23
  %29 = load ptr, ptr %6, align 8
  %30 = getelementptr inbounds nuw %struct._variable, ptr %29, i32 0, i32 3
  %31 = load ptr, ptr %30, align 8
  %32 = icmp ne ptr %31, null
  br label %33

33:                                               ; preds = %28, %23
  %34 = phi i1 [ true, %23 ], [ %32, %28 ]
  store i1 %34, ptr %3, align 1
  store i32 1, ptr %8, align 4
  br label %40

35:                                               ; preds = %15
  %36 = load i32, ptr %7, align 4
  %37 = icmp sgt i32 %36, 0
  br i1 %37, label %38, label %39

38:                                               ; preds = %35
  store i32 2, ptr %8, align 4
  br label %40

39:                                               ; preds = %35
  store i32 0, ptr %8, align 4
  br label %40

40:                                               ; preds = %39, %38, %33
  call void @llvm.lifetime.end.p0(i64 4, ptr %7) #6
  %41 = load i32, ptr %8, align 4
  switch i32 %41, label %48 [
    i32 0, label %42
    i32 2, label %47
  ]

42:                                               ; preds = %40
  br label %43

43:                                               ; preds = %42
  %44 = load ptr, ptr %6, align 8
  %45 = getelementptr inbounds nuw %struct._variable, ptr %44, i32 0, i32 4
  %46 = load ptr, ptr %45, align 8
  store ptr %46, ptr %6, align 8
  br label %12, !llvm.loop !12

47:                                               ; preds = %40, %12
  store i1 false, ptr %3, align 1
  store i32 1, ptr %8, align 4
  br label %48

48:                                               ; preds = %47, %40
  call void @llvm.lifetime.end.p0(i64 8, ptr %6) #6
  %49 = load i1, ptr %3, align 1
  ret i1 %49
}