; Function Attrs: nofree nounwind memory(read, inaccessiblemem: none) uwtable
define dso_local zeroext i1 @VariableHasHook(ptr noundef readonly captures(none) %0, ptr noundef readonly captures(none) %1) local_unnamed_addr #3 {
  br label %3

3:                                                ; preds = %15, %2
  %.pn = phi ptr [ %0, %2 ], [ %.011, %15 ]
  %.011.in = getelementptr inbounds nuw i8, ptr %.pn, i64 32
  %.011 = load ptr, ptr %.011.in, align 8
  %.not = icmp eq ptr %.011, null
  br i1 %.not, label %.thread16, label %4

4:                                                ; preds = %3
  %5 = load ptr, ptr %.011, align 8
  %6 = tail call i32 @strcmp(ptr noundef nonnull dereferenceable(1) %5, ptr noundef nonnull dereferenceable(1) %1) #12
  %7 = icmp eq i32 %6, 0
  br i1 %7, label %8, label %15

8:                                                ; preds = %4
  %9 = getelementptr inbounds nuw i8, ptr %.011, i64 16
  %10 = load ptr, ptr %9, align 8
  %.not13 = icmp eq ptr %10, null
  br i1 %.not13, label %11, label %.thread16

11:                                               ; preds = %8
  %12 = getelementptr inbounds nuw i8, ptr %.011, i64 24
  %13 = load ptr, ptr %12, align 8
  %14 = icmp ne ptr %13, null
  br label %.thread16

15:                                               ; preds = %4
  %16 = icmp sgt i32 %6, 0
  br i1 %16, label %.thread16, label %3

.thread16:                                        ; preds = %15, %3, %8, %11
  %.2 = phi i1 [ %14, %11 ], [ true, %8 ], [ false, %3 ], [ false, %15 ]
  ret i1 %.2
}